target datalayout = "e-m:e-p270:32:32-p271:32:32-p272:64:64-i64:64-i128:128-f80:128-n8:16:32:64-S128"
target triple = "x86_64-pc-linux-gnu"

@__const.av_utf8_decode.overlong_encoding_mins = private unnamed_addr constant [6 x i32] [i32 0, i32 128, i32 2048, i32 65536, i32 2097152, i32 67108864], align 16
@.str.3 = private unnamed_addr constant [30 x i8] c"Assertion %s failed at %s:%d\0A\00", align 1
@.str.4 = private unnamed_addr constant [14 x i8] c"tail_len <= 5\00", align 1
@.str.5 = private unnamed_addr constant [21 x i8] c"libavutil/avstring.c\00", align 1

; Function Attrs: nounwind uwtable
define i32 @av_utf8_decode(ptr noundef %0, ptr noundef %1, ptr noundef %2, i32 noundef %3) #0 {
  %5 = alloca i32, align 4
  %6 = alloca ptr, align 8
  %7 = alloca ptr, align 8
  %8 = alloca ptr, align 8
  %9 = alloca i32, align 4
  %10 = alloca ptr, align 8
  %11 = alloca i32, align 4
  %12 = alloca i64, align 8
  %13 = alloca i32, align 4
  %14 = alloca i32, align 4
  %15 = alloca [6 x i32], align 16
  %16 = alloca i32, align 4
  %17 = alloca i32, align 4
  store ptr %0, ptr %6, align 8, !tbaa !35
  store ptr %1, ptr %7, align 8, !tbaa !9
  store ptr %2, ptr %8, align 8, !tbaa !4
  store i32 %3, ptr %9, align 4, !tbaa !16
  call void @llvm.lifetime.start.p0(i64 8, ptr %10) #11
  %18 = load ptr, ptr %7, align 8, !tbaa !9
  %19 = load ptr, ptr %18, align 8, !tbaa !4
  store ptr %19, ptr %10, align 8, !tbaa !4
  call void @llvm.lifetime.start.p0(i64 4, ptr %11) #11
  call void @llvm.lifetime.start.p0(i64 8, ptr %12) #11
  call void @llvm.lifetime.start.p0(i64 4, ptr %13) #11
  store i32 0, ptr %13, align 4, !tbaa !16
  call void @llvm.lifetime.start.p0(i64 4, ptr %14) #11
  call void @llvm.lifetime.start.p0(i64 24, ptr %15) #11
  call void @llvm.memcpy.p0.p0.i64(ptr align 16 %15, ptr align 16 @__const.av_utf8_decode.overlong_encoding_mins, i64 24, i1 false)
  %20 = load ptr, ptr %10, align 8, !tbaa !4
  %21 = load ptr, ptr %8, align 8, !tbaa !4
  %22 = icmp uge ptr %20, %21
  br i1 %22, label %23, label %24

23:                                               ; preds = %4
  store i32 0, ptr %5, align 4
  store i32 1, ptr %16, align 4
  br label %162

24:                                               ; preds = %4
  %25 = load ptr, ptr %10, align 8, !tbaa !4
  %26 = getelementptr inbounds nuw i8, ptr %25, i32 1
  store ptr %26, ptr %10, align 8, !tbaa !4
  %27 = load i8, ptr %25, align 1, !tbaa !12
  %28 = zext i8 %27 to i64
  store i64 %28, ptr %12, align 8, !tbaa !19
  %29 = load i64, ptr %12, align 8, !tbaa !19
  %30 = and i64 %29, 192
  %31 = icmp eq i64 %30, 128
  br i1 %31, label %35, label %32

32:                                               ; preds = %24
  %33 = load i64, ptr %12, align 8, !tbaa !19
  %34 = icmp uge i64 %33, 254
  br i1 %34, label %35, label %36

35:                                               ; preds = %32, %24
  store i32 -84, ptr %13, align 4, !tbaa !16
  br label %158

36:                                               ; preds = %32
  %37 = load i64, ptr %12, align 8, !tbaa !19
  %38 = and i64 %37, 128
  %39 = lshr i64 %38, 1
  %40 = trunc i64 %39 to i32
  store i32 %40, ptr %11, align 4, !tbaa !16
  store i32 0, ptr %14, align 4, !tbaa !16
  br label %41

41:                                               ; preds = %80, %36
  %42 = load i64, ptr %12, align 8, !tbaa !19
  %43 = load i32, ptr %11, align 4, !tbaa !16
  %44 = zext i32 %43 to i64
  %45 = and i64 %42, %44
  %46 = icmp ne i64 %45, 0
  br i1 %46, label %47, label %81

47:                                               ; preds = %41
  call void @llvm.lifetime.start.p0(i64 4, ptr %17) #11
  %48 = load i32, ptr %14, align 4, !tbaa !16
  %49 = add nsw i32 %48, 1
  store i32 %49, ptr %14, align 4, !tbaa !16
  %50 = load ptr, ptr %10, align 8, !tbaa !4
  %51 = load ptr, ptr %8, align 8, !tbaa !4
  %52 = icmp uge ptr %50, %51
  br i1 %52, label %53, label %57

53:                                               ; preds = %47
  %54 = load ptr, ptr %7, align 8, !tbaa !9
  %55 = load ptr, ptr %54, align 8, !tbaa !4
  %56 = getelementptr inbounds nuw i8, ptr %55, i32 1
  store ptr %56, ptr %54, align 8, !tbaa !4
  store i32 -84, ptr %5, align 4
  store i32 1, ptr %16, align 4
  br label %78

57:                                               ; preds = %47
  %58 = load ptr, ptr %10, align 8, !tbaa !4
  %59 = getelementptr inbounds nuw i8, ptr %58, i32 1
  store ptr %59, ptr %10, align 8, !tbaa !4
  %60 = load i8, ptr %58, align 1, !tbaa !12
  %61 = zext i8 %60 to i32
  %62 = sub nsw i32 %61, 128
  store i32 %62, ptr %17, align 4, !tbaa !16
  %63 = load i32, ptr %17, align 4, !tbaa !16
  %64 = ashr i32 %63, 6
  %65 = icmp ne i32 %64, 0
  br i1 %65, label %66, label %70

66:                                               ; preds = %57
  %67 = load ptr, ptr %7, align 8, !tbaa !9
  %68 = load ptr, ptr %67, align 8, !tbaa !4
  %69 = getelementptr inbounds nuw i8, ptr %68, i32 1
  store ptr %69, ptr %67, align 8, !tbaa !4
  store i32 -84, ptr %5, align 4
  store i32 1, ptr %16, align 4
  br label %78

70:                                               ; preds = %57
  %71 = load i64, ptr %12, align 8, !tbaa !19
  %72 = shl i64 %71, 6
  %73 = load i32, ptr %17, align 4, !tbaa !16
  %74 = sext i32 %73 to i64
  %75 = add i64 %72, %74
  store i64 %75, ptr %12, align 8, !tbaa !19
  %76 = load i32, ptr %11, align 4, !tbaa !16
  %77 = shl i32 %76, 5
  store i32 %77, ptr %11, align 4, !tbaa !16
  store i32 0, ptr %16, align 4
  br label %78

78:                                               ; preds = %70, %66, %53
  call void @llvm.lifetime.end.p0(i64 4, ptr %17) #11
  %79 = load i32, ptr %16, align 4
  switch i32 %79, label %162 [
    i32 0, label %80
  ]

80:                                               ; preds = %78
  br label %41, !llvm.loop !37

81:                                               ; preds = %41
  %82 = load i32, ptr %11, align 4, !tbaa !16
  %83 = shl i32 %82, 1
  %84 = sub i32 %83, 1
  %85 = zext i32 %84 to i64
  %86 = load i64, ptr %12, align 8, !tbaa !19
  %87 = and i64 %86, %85
  store i64 %87, ptr %12, align 8, !tbaa !19
  br label %88

88:                                               ; preds = %81
  %89 = load i32, ptr %14, align 4, !tbaa !16
  %90 = icmp sle i32 %89, 5
  br i1 %90, label %92, label %91

91:                                               ; preds = %88
  call void (ptr, i32, ptr, ...) @av_log(ptr noundef null, i32 noundef 0, ptr noundef @.str.3, ptr noundef @.str.4, ptr noundef @.str.5, i32 noundef 413)
  call void @abort() #13
  unreachable

92:                                               ; preds = %88
  br label %93

93:                                               ; preds = %92
  br label %94

94:                                               ; preds = %93
  %95 = load i64, ptr %12, align 8, !tbaa !19
  %96 = load i32, ptr %14, align 4, !tbaa !16
  %97 = sext i32 %96 to i64
  %98 = getelementptr inbounds [6 x i32], ptr %15, i64 0, i64 %97
  %99 = load i32, ptr %98, align 4, !tbaa !16
  %100 = zext i32 %99 to i64
  %101 = icmp ult i64 %95, %100
  br i1 %101, label %102, label %103

102:                                              ; preds = %94
  store i32 -84, ptr %13, align 4, !tbaa !16
  br label %158

103:                                              ; preds = %94
  %104 = load i64, ptr %12, align 8, !tbaa !19
  %105 = icmp uge i64 %104, 2147483648
  br i1 %105, label %106, label %107

106:                                              ; preds = %103
  store i32 -84, ptr %13, align 4, !tbaa !16
  br label %158

107:                                              ; preds = %103
  %108 = load i64, ptr %12, align 8, !tbaa !19
  %109 = trunc i64 %108 to i32
  %110 = load ptr, ptr %6, align 8, !tbaa !35
  store i32 %109, ptr %110, align 4, !tbaa !16
  %111 = load i64, ptr %12, align 8, !tbaa !19
  %112 = icmp ugt i64 %111, 1114111
  br i1 %112, label %113, label %118

113:                                              ; preds = %107
  %114 = load i32, ptr %9, align 4, !tbaa !16
  %115 = and i32 %114, 1
  %116 = icmp ne i32 %115, 0
  br i1 %116, label %118, label %117

117:                                              ; preds = %113
  store i32 -84, ptr %13, align 4, !tbaa !16
  br label %118

118:                                              ; preds = %117, %113, %107
  %119 = load i64, ptr %12, align 8, !tbaa !19
  %120 = icmp ult i64 %119, 32
  br i1 %120, label %121, label %135

121:                                              ; preds = %118
  %122 = load i64, ptr %12, align 8, !tbaa !19
  %123 = icmp ne i64 %122, 9
  br i1 %123, label %124, label %135

124:                                              ; preds = %121
  %125 = load i64, ptr %12, align 8, !tbaa !19
  %126 = icmp ne i64 %125, 10
  br i1 %126, label %127, label %135

127:                                              ; preds = %124
  %128 = load i64, ptr %12, align 8, !tbaa !19
  %129 = icmp ne i64 %128, 13
  br i1 %129, label %130, label %135

130:                                              ; preds = %127
  %131 = load i32, ptr %9, align 4, !tbaa !16
  %132 = and i32 %131, 8
  %133 = icmp ne i32 %132, 0
  br i1 %133, label %134, label %135

134:                                              ; preds = %130
  store i32 -84, ptr %13, align 4, !tbaa !16
  br label %135

135:                                              ; preds = %134, %130, %127, %124, %121, %118
  %136 = load i64, ptr %12, align 8, !tbaa !19
  %137 = icmp uge i64 %136, 55296
  br i1 %137, label %138, label %146

138:                                              ; preds = %135
  %139 = load i64, ptr %12, align 8, !tbaa !19
  %140 = icmp ule i64 %139, 57343
  br i1 %140, label %141, label %146

141:                                              ; preds = %138
  %142 = load i32, ptr %9, align 4, !tbaa !16
  %143 = and i32 %142, 4
  %144 = icmp ne i32 %143, 0
  br i1 %144, label %146, label %145

145:                                              ; preds = %141
  store i32 -84, ptr %13, align 4, !tbaa !16
  br label %146

146:                                              ; preds = %145, %141, %138, %135
  %147 = load i64, ptr %12, align 8, !tbaa !19
  %148 = icmp eq i64 %147, 65534
  br i1 %148, label %152, label %149

149:                                              ; preds = %146
  %150 = load i64, ptr %12, align 8, !tbaa !19
  %151 = icmp eq i64 %150, 65535
  br i1 %151, label %152, label %157

152:                                              ; preds = %149, %146
  %153 = load i32, ptr %9, align 4, !tbaa !16
  %154 = and i32 %153, 2
  %155 = icmp ne i32 %154, 0
  br i1 %155, label %157, label %156

156:                                              ; preds = %152
  store i32 -84, ptr %13, align 4, !tbaa !16
  br label %157

157:                                              ; preds = %156, %152, %149
  br label %158

158:                                              ; preds = %157, %106, %102, %35
  %159 = load ptr, ptr %10, align 8, !tbaa !4
  %160 = load ptr, ptr %7, align 8, !tbaa !9
  store ptr %159, ptr %160, align 8, !tbaa !4
  %161 = load i32, ptr %13, align 4, !tbaa !16
  store i32 %161, ptr %5, align 4
  store i32 1, ptr %16, align 4
  br label %162

162:                                              ; preds = %158, %78, %23
  call void @llvm.lifetime.end.p0(i64 24, ptr %15) #11
  call void @llvm.lifetime.end.p0(i64 4, ptr %14) #11
  call void @llvm.lifetime.end.p0(i64 4, ptr %13) #11
  call void @llvm.lifetime.end.p0(i64 8, ptr %12) #11
  call void @llvm.lifetime.end.p0(i64 4, ptr %11) #11
  call void @llvm.lifetime.end.p0(i64 8, ptr %10) #11
  %163 = load i32, ptr %5, align 4
  ret i32 %163
}