; Function Attrs: nounwind uwtable
define range(i32 -84, 1) i32 @av_utf8_decode(ptr noundef writeonly captures(none) %0, ptr noundef captures(none) %1, ptr noundef readnone captures(address) %2, i32 noundef %3) local_unnamed_addr #9 {
  %5 = load ptr, ptr %1, align 8, !tbaa !9
  %.not = icmp ult ptr %5, %2
  br i1 %.not, label %6, label %.thread

6:                                                ; preds = %4
  %7 = getelementptr inbounds nuw i8, ptr %5, i64 1
  %8 = load i8, ptr %5, align 1, !tbaa !4
  %9 = zext i8 %8 to i64
  %10 = and i64 %9, 192
  %11 = icmp eq i64 %10, 128
  %12 = icmp ugt i8 %8, -3
  %or.cond = or i1 %12, %11
  br i1 %or.cond, label %.thread.sink.split, label %13

13:                                               ; preds = %6
  %14 = lshr i8 %8, 1
  %15 = and i8 %14, 64
  %16 = zext nneg i8 %15 to i32
  %17 = and i8 %8, %15
  %.not71100 = icmp eq i8 %17, 0
  br i1 %.not71100, label %._crit_edge.thread, label %.lr.ph

._crit_edge.thread:                               ; preds = %13
  %18 = shl nuw nsw i32 %16, 1
  %19 = add nsw i32 %18, -1
  %20 = zext i32 %19 to i64
  %21 = and i64 %9, %20
  br label %41

.lr.ph:                                           ; preds = %13, %27
  %.056104 = phi i32 [ %22, %27 ], [ 0, %13 ]
  %.060103 = phi i64 [ %31, %27 ], [ %9, %13 ]
  %.062102 = phi i32 [ %32, %27 ], [ %16, %13 ]
  %.165101 = phi ptr [ %28, %27 ], [ %7, %13 ]
  %22 = add nuw nsw i32 %.056104, 1
  %.not76 = icmp ult ptr %.165101, %2
  br i1 %.not76, label %23, label %.thread.sink.split

23:                                               ; preds = %.lr.ph
  %24 = load i8, ptr %.165101, align 1, !tbaa !4
  %25 = zext i8 %24 to i32
  %26 = add nsw i32 %25, -128
  %.not77 = icmp ult i32 %26, 64
  br i1 %.not77, label %27, label %.thread.sink.split

27:                                               ; preds = %23
  %28 = getelementptr inbounds nuw i8, ptr %.165101, i64 1
  %29 = shl i64 %.060103, 6
  %30 = zext nneg i32 %26 to i64
  %31 = or disjoint i64 %29, %30
  %32 = shl i32 %.062102, 5
  %33 = zext i32 %32 to i64
  %34 = and i64 %29, %33
  %.not71 = icmp eq i64 %34, 0
  br i1 %.not71, label %._crit_edge, label %.lr.ph, !llvm.loop !27

._crit_edge:                                      ; preds = %27
  %35 = shl i32 %.062102, 6
  %36 = add i32 %35, -1
  %37 = zext i32 %36 to i64
  %38 = and i64 %31, %37
  %39 = icmp samesign ult i32 %.056104, 5
  br i1 %39, label %41, label %40

40:                                               ; preds = %._crit_edge
  tail call void (ptr, i32, ptr, ...) @av_log(ptr noundef null, i32 noundef 0, ptr noundef nonnull @.str.3, ptr noundef nonnull @.str.4, ptr noundef nonnull @.str.5, i32 noundef 413) #19
  tail call void @abort() #20
  unreachable

41:                                               ; preds = %._crit_edge.thread, %._crit_edge
  %42 = phi i64 [ %21, %._crit_edge.thread ], [ %38, %._crit_edge ]
  %.056.lcssa118 = phi i32 [ 0, %._crit_edge.thread ], [ %22, %._crit_edge ]
  %.165.lcssa117 = phi ptr [ %7, %._crit_edge.thread ], [ %28, %._crit_edge ]
  %43 = zext nneg i32 %.056.lcssa118 to i64
  %44 = getelementptr inbounds nuw [6 x i32], ptr @__const.av_utf8_decode.overlong_encoding_mins, i64 0, i64 %43
  %45 = load i32, ptr %44, align 4, !tbaa !28
  %46 = zext i32 %45 to i64
  %47 = icmp samesign ult i64 %42, %46
  %48 = icmp samesign ugt i64 %42, 2147483647
  %or.cond82 = select i1 %47, i1 true, i1 %48
  br i1 %or.cond82, label %.thread.sink.split, label %49

49:                                               ; preds = %41
  %50 = trunc nuw nsw i64 %42 to i32
  store i32 %50, ptr %0, align 4, !tbaa !28
  %51 = icmp samesign ugt i64 %42, 1114111
  %52 = and i32 %3, 1
  %.not72 = icmp eq i32 %52, 0
  %or.cond78 = and i1 %.not72, %51
  %.158 = select i1 %or.cond78, i32 -84, i32 0
  %53 = icmp samesign ugt i64 %42, 31
  %54 = add nsw i64 %42, -9
  %55 = icmp ult i64 %54, 2
  %or.cond5.not91 = or i1 %53, %55
  %56 = icmp eq i64 %42, 13
  %or.cond7.not88 = or i1 %56, %or.cond5.not91
  %57 = and i32 %3, 8
  %.not73 = icmp eq i32 %57, 0
  %or.cond79 = or i1 %.not73, %or.cond7.not88
  %.259 = select i1 %or.cond79, i32 %.158, i32 -84
  %58 = and i64 %42, 2147481600
  %or.cond9 = icmp eq i64 %58, 55296
  %59 = and i32 %3, 4
  %.not74 = icmp eq i32 %59, 0
  %or.cond80 = and i1 %.not74, %or.cond9
  %60 = and i64 %42, 2147483646
  %or.cond11 = icmp eq i64 %60, 65534
  %61 = and i32 %3, 2
  %.not75 = icmp eq i32 %61, 0
  %or.cond81 = and i1 %.not75, %or.cond11
  %62 = or i1 %or.cond81, %or.cond80
  %spec.select = select i1 %62, i32 -84, i32 %.259
  br label %.thread.sink.split

.thread.sink.split:                               ; preds = %23, %.lr.ph, %6, %41, %49
  %.sink = phi ptr [ %7, %6 ], [ %.165.lcssa117, %41 ], [ %.165.lcssa117, %49 ], [ %7, %.lr.ph ], [ %7, %23 ]
  %.0.ph = phi i32 [ -84, %6 ], [ -84, %41 ], [ %spec.select, %49 ], [ -84, %.lr.ph ], [ -84, %23 ]
  store ptr %.sink, ptr %1, align 8, !tbaa !9
  br label %.thread

.thread:                                          ; preds = %.thread.sink.split, %4
  %.0 = phi i32 [ 0, %4 ], [ %.0.ph, %.thread.sink.split ]
  ret i32 %.0
}